target datalayout = "e-m:e-p270:32:32-p271:32:32-p272:64:64-i64:64-i128:128-f80:128-n8:16:32:64-S128"
target triple = "x86_64-pc-linux-gnu"

%"class.icu_77::UVector64" = type { %"class.icu_77::UObject", i32, i32, i32, ptr }
%"class.icu_77::UObject" = type { ptr }

; Function Attrs: mustprogress uwtable
define void @_ZN6icu_779UVector6414setMaxCapacityEi(ptr noundef nonnull align 8 dereferenceable(32) %0, i32 noundef %1) #1 align 2 {
  %3 = alloca ptr, align 8
  %4 = alloca i32, align 4
  %5 = alloca ptr, align 8
  %6 = alloca i32, align 4
  store ptr %0, ptr %3, align 8, !tbaa !3
  store i32 %1, ptr %4, align 4, !tbaa !21
  %7 = load ptr, ptr %3, align 8
  %8 = load i32, ptr %4, align 4, !tbaa !21
  %9 = icmp slt i32 %8, 0
  br i1 %9, label %10, label %11

10:                                               ; preds = %2
  store i32 0, ptr %4, align 4, !tbaa !21
  br label %11

11:                                               ; preds = %10, %2
  %12 = load i32, ptr %4, align 4, !tbaa !21
  %13 = icmp sgt i32 %12, 268435455
  br i1 %13, label %14, label %15

14:                                               ; preds = %11
  br label %57

15:                                               ; preds = %11
  %16 = load i32, ptr %4, align 4, !tbaa !21
  %17 = getelementptr inbounds nuw %"class.icu_77::UVector64", ptr %7, i32 0, i32 3
  store i32 %16, ptr %17, align 8, !tbaa !17
  %18 = getelementptr inbounds nuw %"class.icu_77::UVector64", ptr %7, i32 0, i32 2
  %19 = load i32, ptr %18, align 4, !tbaa !16
  %20 = getelementptr inbounds nuw %"class.icu_77::UVector64", ptr %7, i32 0, i32 3
  %21 = load i32, ptr %20, align 8, !tbaa !17
  %22 = icmp sle i32 %19, %21
  br i1 %22, label %27, label %23

23:                                               ; preds = %15
  %24 = getelementptr inbounds nuw %"class.icu_77::UVector64", ptr %7, i32 0, i32 3
  %25 = load i32, ptr %24, align 8, !tbaa !17
  %26 = icmp eq i32 %25, 0
  br i1 %26, label %27, label %28

27:                                               ; preds = %23, %15
  br label %57

28:                                               ; preds = %23
  call void @llvm.lifetime.start.p0(i64 8, ptr %5) #10
  %29 = getelementptr inbounds nuw %"class.icu_77::UVector64", ptr %7, i32 0, i32 4
  %30 = load ptr, ptr %29, align 8, !tbaa !18
  %31 = getelementptr inbounds nuw %"class.icu_77::UVector64", ptr %7, i32 0, i32 3
  %32 = load i32, ptr %31, align 8, !tbaa !17
  %33 = sext i32 %32 to i64
  %34 = mul i64 8, %33
  %35 = call ptr @uprv_realloc_77(ptr noundef %30, i64 noundef %34) #13
  store ptr %35, ptr %5, align 8, !tbaa !31
  %36 = load ptr, ptr %5, align 8, !tbaa !31
  %37 = icmp eq ptr %36, null
  br i1 %37, label %38, label %39

38:                                               ; preds = %28
  store i32 1, ptr %6, align 4
  br label %55

39:                                               ; preds = %28
  %40 = load ptr, ptr %5, align 8, !tbaa !31
  %41 = getelementptr inbounds nuw %"class.icu_77::UVector64", ptr %7, i32 0, i32 4
  store ptr %40, ptr %41, align 8, !tbaa !18
  %42 = getelementptr inbounds nuw %"class.icu_77::UVector64", ptr %7, i32 0, i32 3
  %43 = load i32, ptr %42, align 8, !tbaa !17
  %44 = getelementptr inbounds nuw %"class.icu_77::UVector64", ptr %7, i32 0, i32 2
  store i32 %43, ptr %44, align 4, !tbaa !16
  %45 = getelementptr inbounds nuw %"class.icu_77::UVector64", ptr %7, i32 0, i32 1
  %46 = load i32, ptr %45, align 8, !tbaa !11
  %47 = getelementptr inbounds nuw %"class.icu_77::UVector64", ptr %7, i32 0, i32 2
  %48 = load i32, ptr %47, align 4, !tbaa !16
  %49 = icmp sgt i32 %46, %48
  br i1 %49, label %50, label %54

50:                                               ; preds = %39
  %51 = getelementptr inbounds nuw %"class.icu_77::UVector64", ptr %7, i32 0, i32 2
  %52 = load i32, ptr %51, align 4, !tbaa !16
  %53 = getelementptr inbounds nuw %"class.icu_77::UVector64", ptr %7, i32 0, i32 1
  store i32 %52, ptr %53, align 8, !tbaa !11
  br label %54

54:                                               ; preds = %50, %39
  store i32 0, ptr %6, align 4
  br label %55

55:                                               ; preds = %54, %38
  call void @llvm.lifetime.end.p0(i64 8, ptr %5) #10
  %56 = load i32, ptr %6, align 4
  switch i32 %56, label %58 [
    i32 0, label %57
    i32 1, label %57
  ]

57:                                               ; preds = %14, %27, %55, %55
  ret void

58:                                               ; preds = %55
  unreachable
}