; Function Attrs: mustprogress uwtable
define void @_ZN6icu_779UVector6414setMaxCapacityEi(ptr noundef nonnull align 8 captures(none) dereferenceable(32) %0, i32 noundef %1) local_unnamed_addr #1 align 2 {
  %spec.store.select = tail call i32 @llvm.smax.i32(i32 %1, i32 0)
  %3 = icmp sgt i32 %1, 268435455
  br i1 %3, label %22, label %4

4:                                                ; preds = %2
  %5 = getelementptr inbounds nuw i8, ptr %0, i64 16
  store i32 %spec.store.select, ptr %5, align 8, !tbaa !14
  %6 = getelementptr inbounds nuw i8, ptr %0, i64 12
  %7 = load i32, ptr %6, align 4, !tbaa !13
  %.not = icmp sle i32 %7, %spec.store.select
  %8 = icmp slt i32 %1, 1
  %or.cond = or i1 %8, %.not
  br i1 %or.cond, label %22, label %9

9:                                                ; preds = %4
  %10 = getelementptr inbounds nuw i8, ptr %0, i64 24
  %11 = load ptr, ptr %10, align 8, !tbaa !15
  %12 = zext nneg i32 %spec.store.select to i64
  %13 = shl nuw nsw i64 %12, 3
  %14 = tail call ptr @uprv_realloc_77(ptr noundef %11, i64 noundef %13) #17
  %15 = icmp eq ptr %14, null
  br i1 %15, label %22, label %16

16:                                               ; preds = %9
  store ptr %14, ptr %10, align 8, !tbaa !15
  %17 = load i32, ptr %5, align 8, !tbaa !14
  store i32 %17, ptr %6, align 4, !tbaa !13
  %18 = getelementptr inbounds nuw i8, ptr %0, i64 8
  %19 = load i32, ptr %18, align 8, !tbaa !6
  %20 = icmp sgt i32 %19, %17
  br i1 %20, label %21, label %22

21:                                               ; preds = %16
  store i32 %17, ptr %18, align 8, !tbaa !6
  br label %22

22:                                               ; preds = %9, %21, %16, %4, %2
  ret void
}